Certificate:
    Data:
        Version: 3 (0x2)
        Serial Number:
            49:38:93:a3:01:9d:c2:d9:0c:d8:09:44:84:ea:37:32:36:0d:2e:e6
        Signature Algorithm: sha256WithRSAEncryption
        Issuer: CN = localhost
        Validity
            Not Before: Apr 24 12:54:30 2021 GMT
            Not After : Apr 24 12:54:30 2022 GMT
        Subject: CN = localhost
        Subject Public Key Info:
            Public Key Algorithm: rsaEncryption
                RSA Public-Key: (2048 bit)
                Modulus:
                    00:a4:24:40:c9:83:9e:e6:9b:9c:fb:3d:69:2f:7e:
                    f3:5a:87:57:de:85:d8:a0:68:f5:58:13:b6:11:25:
                    14:0d:ed:5b:80:36:aa:d9:45:62:98:dc:be:b0:fb:
                    e3:52:3b:c8:69:b1:c4:ad:cf:ea:36:2e:42:e8:22:
                    f3:87:2f:03:8f:e2:0a:e7:14:0b:18:1e:95:22:78:
                    09:24:3a:1e:43:e0:df:0a:51:6d:f1:aa:59:53:08:
                    1a:f4:17:d9:74:cf:17:fe:1f:5f:61:3c:41:b1:cd:
                    15:69:9b:04:e0:7b:61:ef:6e:ef:11:ec:a6:62:07:
                    b0:37:16:d6:1b:43:77:27:cd:20:20:df:89:64:60:
                    dc:85:75:e0:af:fc:6a:f8:34:5f:c4:61:05:fd:c4:
                    c7:65:24:5c:35:6b:0e:2e:f9:17:68:d3:5d:f2:f0:
                    a3:22:ef:ce:ba:8f:93:c6:35:94:b5:73:93:5d:4a:
                    98:7a:eb:87:f7:36:31:d0:4b:b6:e7:72:8e:ce:65:
                    c4:89:ce:37:c1:20:16:04:74:00:dc:5d:66:66:58:
                    42:a7:83:61:24:8f:46:1d:5c:c2:88:4a:92:74:0b:
                    2d:8b:2c:ac:69:0a:bf:ab:dc:0f:64:36:bd:bc:ef:
                    fc:35:b1:f7:13:dc:a4:ce:e8:73:c5:46:33:f7:30:
                    9b:09
                Exponent: 65537 (0x10001)
        X509v3 extensions:
            X509v3 Subject Key Identifier: 
                39:39:DB:D1:39:17:45:2D:7A:0F:D5:A2:F1:F7:8A:03:D0:D4:26:DC
            X509v3 Authority Key Identifier: 
                keyid:39:39:DB:D1:39:17:45:2D:7A:0F:D5:A2:F1:F7:8A:03:D0:D4:26:DC

            X509v3 Basic Constraints: critical
                CA:TRUE
    Signature Algorithm: sha256WithRSAEncryption
         8b:19:83:1d:12:b8:a2:68:37:40:7f:3b:f6:71:0c:3b:b0:42:
         3d:6c:fe:61:71:17:d7:fe:ac:98:62:e1:8f:93:1f:38:cd:f8:
         e0:a4:73:7f:46:cd:4c:55:11:d1:25:cb:11:61:da:13:40:7c:
         97:3b:e6:4a:c5:a6:6e:16:ed:e7:f0:9e:1b:0b:5b:67:c0:d7:
         5b:91:cf:1d:e5:20:5b:96:5a:66:c8:4d:a9:9c:71:55:a6:13:
         8d:6b:08:a8:a2:55:e1:51:74:65:1a:93:7f:b5:cf:4a:6c:00:
         de:29:c2:5f:0b:33:b6:84:11:e2:0c:9a:55:b0:7e:3c:79:6e:
         11:6d:e1:a8:bc:89:2a:0f:d5:f6:3c:e6:03:8e:fc:ec:53:e4:
         72:6c:77:e6:aa:36:71:4c:b7:a4:4e:87:6e:07:7b:c1:b4:ba:
         09:59:9b:e1:6a:bc:21:c4:0d:92:81:b4:56:33:8d:61:85:ba:
         99:8f:17:6f:43:47:eb:69:ef:bf:cb:11:01:b1:12:f8:49:94:
         f0:ad:6e:6a:3b:60:e6:bc:85:cc:a9:f1:ef:b6:2d:26:a0:95:
         b4:e1:dc:09:7e:2d:b0:4d:19:b3:e3:49:87:c5:8b:ed:10:4f:
         de:a2:0c:10:2d:e9:24:94:a0:33:70:41:a2:30:56:45:24:b0:
         0d:36:e1:07
-----BEGIN CERTIFICATE-----
MIIDCTCCAfGgAwIBAgIUSTiTowGdwtkM2AlEhOo3MjYNLuYwDQYJKoZIhvcNAQEL
BQAwFDESMBAGA1UEAwwJbG9jYWxob3N0MB4XDTIxMDQyNDEyNTQzMFoXDTIyMDQy
NDEyNTQzMFowFDESMBAGA1UEAwwJbG9jYWxob3N0MIIBIjANBgkqhkiG9w0BAQEF
AAOCAQ8AMIIBCgKCAQEApCRAyYOe5puc+z1pL37zWodX3oXYoGj1WBO2ESUUDe1b
gDaq2UVimNy+sPvjUjvIabHErc/qNi5C6CLzhy8Dj+IK5xQLGB6VIngJJDoeQ+Df
ClFt8apZUwga9BfZdM8X/h9fYTxBsc0VaZsE4Hth727vEeymYgewNxbWG0N3J80g
IN+JZGDchXXgr/xq+DRfxGEF/cTHZSRcNWsOLvkXaNNd8vCjIu/Ouo+TxjWUtXOT
XUqYeuuH9zYx0Eu253KOzmXEic43wSAWBHQA3F1mZlhCp4NhJI9GHVzCiEqSdAst
iyysaQq/q9wPZDa9vO/8NbH3E9ykzuhzxUYz9zCbCQIDAQABo1MwUTAdBgNVHQ4E
FgQUOTnb0TkXRS16D9Wi8feKA9DUJtwwHwYDVR0jBBgwFoAUOTnb0TkXRS16D9Wi
8feKA9DUJtwwDwYDVR0TAQH/BAUwAwEB/zANBgkqhkiG9w0BAQsFAAOCAQEAixmD
HRK4omg3QH879nEMO7BCPWz+YXEX1/6smGLhj5MfOM344KRzf0bNTFUR0SXLEWHa
E0B8lzvmSsWmbhbt5/CeGwtbZ8DXW5HPHeUgW5ZaZshNqZxxVaYTjWsIqKJV4VF0
ZRqTf7XPSmwA3inCXwsztoQR4gyaVbB+PHluEW3hqLyJKg/V9jzmA4787FPkcmx3
5qo2cUy3pE6Hbgd7wbS6CVmb4Wq8IcQNkoG0VjONYYW6mY8Xb0NH62nvv8sRAbES
+EmU8K1uajtg5ryFzKnx77YtJqCVtOHcCX4tsE0Zs+NJh8WL7RBP3qIMEC3pJJSg
M3BBojBWRSSwDTbhBw==
-----END CERTIFICATE-----
